; Function Attrs: mustprogress nounwind willreturn uwtable
define void @Gia_Sim2Delete(ptr noundef captures(none) %0) local_unnamed_addr #0 {
  %2 = getelementptr inbounds nuw i8, ptr %0, i64 32
  %3 = load ptr, ptr %2, align 8, !tbaa !3
  %4 = icmp eq ptr %3, null
  br i1 %4, label %Vec_IntFreeP.exit, label %5

5:                                                ; preds = %1
  %6 = getelementptr inbounds nuw i8, ptr %3, i64 8
  %7 = load ptr, ptr %6, align 8, !tbaa !8
  %.not.i = icmp eq ptr %7, null
  br i1 %.not.i, label %10, label %.thread.i

.thread.i:                                        ; preds = %5
  tail call void @free(ptr noundef nonnull %7) #16
  %8 = load ptr, ptr %2, align 8, !tbaa !3
  %9 = getelementptr inbounds nuw i8, ptr %8, i64 8
  store ptr null, ptr %9, align 8, !tbaa !8
  br label %10

10:                                               ; preds = %.thread.i, %5
  %11 = phi ptr [ %8, %.thread.i ], [ %3, %5 ]
  tail call void @free(ptr noundef nonnull %11) #16
  store ptr null, ptr %2, align 8, !tbaa !3
  br label %Vec_IntFreeP.exit

Vec_IntFreeP.exit:                                ; preds = %1, %10
  %12 = getelementptr inbounds nuw i8, ptr %0, i64 40
  %13 = load ptr, ptr %12, align 8, !tbaa !3
  %14 = icmp eq ptr %13, null
  br i1 %14, label %Vec_IntFreeP.exit11, label %15

15:                                               ; preds = %Vec_IntFreeP.exit
  %16 = getelementptr inbounds nuw i8, ptr %13, i64 8
  %17 = load ptr, ptr %16, align 8, !tbaa !8
  %.not.i9 = icmp eq ptr %17, null
  br i1 %.not.i9, label %20, label %.thread.i10

.thread.i10:                                      ; preds = %15
  tail call void @free(ptr noundef nonnull %17) #16
  %18 = load ptr, ptr %12, align 8, !tbaa !3
  %19 = getelementptr inbounds nuw i8, ptr %18, i64 8
  store ptr null, ptr %19, align 8, !tbaa !8
  br label %20

20:                                               ; preds = %.thread.i10, %15
  %21 = phi ptr [ %18, %.thread.i10 ], [ %13, %15 ]
  tail call void @free(ptr noundef nonnull %21) #16
  store ptr null, ptr %12, align 8, !tbaa !3
  br label %Vec_IntFreeP.exit11

Vec_IntFreeP.exit11:                              ; preds = %Vec_IntFreeP.exit, %20
  %22 = getelementptr inbounds nuw i8, ptr %0, i64 24
  %23 = load ptr, ptr %22, align 8, !tbaa !12
  %.not = icmp eq ptr %23, null
  br i1 %.not, label %25, label %24

24:                                               ; preds = %Vec_IntFreeP.exit11
  tail call void @free(ptr noundef nonnull %23) #16
  br label %25

25:                                               ; preds = %Vec_IntFreeP.exit11, %24
  tail call void @free(ptr noundef nonnull %0) #16
  ret void
}